; Function Attrs: mustprogress uwtable
define internal fastcc void @_ZZN5arrow8internal12_GLOBAL__N_115IntegersInRangeINS_10UInt32TypeEjEENS_6StatusERKNS_9ArraySpanET0_S8_ENKUljE0_clEj(ptr noalias align 8 %agg.result, ptr nocapture noundef nonnull readonly align 8 dereferenceable(16) %this, i32 noundef %val) unnamed_addr #6 align 2 personality ptr @__gxx_personality_v0 {
entry:
  %ref.tmp.i.i = alloca %"class.std::__cxx11::basic_string", align 8
  %ref.tmp = alloca %"class.std::__cxx11::basic_string", align 8
  %ref.tmp2 = alloca %"class.std::__cxx11::basic_string", align 8
  %ref.tmp3 = alloca %"class.std::__cxx11::basic_string", align 8
  call void @_ZN5arrow8internal7ToCharsIjJEEENSt7__cxx1112basic_stringIcSt11char_traitsIcESaIcEEET_DpOT0_(ptr nonnull sret(%"class.std::__cxx11::basic_string") align 8 %ref.tmp, i32 noundef %val)
  %0 = load ptr, ptr %this, align 8
  %1 = load i32, ptr %0, align 4
  invoke void @_ZN5arrow8internal7ToCharsIjJEEENSt7__cxx1112basic_stringIcSt11char_traitsIcESaIcEEET_DpOT0_(ptr nonnull sret(%"class.std::__cxx11::basic_string") align 8 %ref.tmp2, i32 noundef %1)
          to label %invoke.cont unwind label %lpad

invoke.cont:                                      ; preds = %entry
  %2 = getelementptr inbounds i8, ptr %this, i64 8
  %3 = load ptr, ptr %2, align 8
  %4 = load i32, ptr %3, align 4
  invoke void @_ZN5arrow8internal7ToCharsIjJEEENSt7__cxx1112basic_stringIcSt11char_traitsIcESaIcEEET_DpOT0_(ptr nonnull sret(%"class.std::__cxx11::basic_string") align 8 %ref.tmp3, i32 noundef %4)
          to label %invoke.cont5 unwind label %lpad4

invoke.cont5:                                     ; preds = %invoke.cont
  call void @llvm.lifetime.start.p0(i64 32, ptr nonnull %ref.tmp.i.i), !noalias !1184
  invoke void @_ZN5arrow4util13StringBuilderIJRA15_KcNSt7__cxx1112basic_stringIcSt11char_traitsIcESaIcEEERA16_S2_SA_RA5_S2_SA_EEESA_DpOT_(ptr nonnull sret(%"class.std::__cxx11::basic_string") align 8 %ref.tmp.i.i, ptr noundef nonnull align 1 dereferenceable(15) @.str.8, ptr noundef nonnull align 8 dereferenceable(32) %ref.tmp, ptr noundef nonnull align 1 dereferenceable(16) @.str.9, ptr noundef nonnull align 8 dereferenceable(32) %ref.tmp2, ptr noundef nonnull align 1 dereferenceable(5) @.str.10, ptr noundef nonnull align 8 dereferenceable(32) %ref.tmp3)
          to label %.noexc unwind label %lpad6

.noexc:                                           ; preds = %invoke.cont5
  invoke void @_ZN5arrow6StatusC1ENS_10StatusCodeERKNSt7__cxx1112basic_stringIcSt11char_traitsIcESaIcEEE(ptr noundef nonnull align 8 dereferenceable(8) %agg.result, i8 noundef signext 4, ptr noundef nonnull align 8 dereferenceable(32) %ref.tmp.i.i)
          to label %invoke.cont7 unwind label %lpad.i.i

lpad.i.i:                                         ; preds = %.noexc
  %5 = landingpad { ptr, i32 }
          cleanup
  call void @_ZNSt7__cxx1112basic_stringIcSt11char_traitsIcESaIcEED1Ev(ptr noundef nonnull align 8 dereferenceable(32) %ref.tmp.i.i) #15
  br label %lpad6.body

invoke.cont7:                                     ; preds = %.noexc
  call void @_ZNSt7__cxx1112basic_stringIcSt11char_traitsIcESaIcEED1Ev(ptr noundef nonnull align 8 dereferenceable(32) %ref.tmp.i.i) #15
  call void @llvm.lifetime.end.p0(i64 32, ptr nonnull %ref.tmp.i.i), !noalias !1184
  call void @_ZNSt7__cxx1112basic_stringIcSt11char_traitsIcESaIcEED1Ev(ptr noundef nonnull align 8 dereferenceable(32) %ref.tmp3) #15
  call void @_ZNSt7__cxx1112basic_stringIcSt11char_traitsIcESaIcEED1Ev(ptr noundef nonnull align 8 dereferenceable(32) %ref.tmp2) #15
  call void @_ZNSt7__cxx1112basic_stringIcSt11char_traitsIcESaIcEED1Ev(ptr noundef nonnull align 8 dereferenceable(32) %ref.tmp) #15
  ret void

lpad:                                             ; preds = %entry
  %6 = landingpad { ptr, i32 }
          cleanup
  br label %ehcleanup8

lpad4:                                            ; preds = %invoke.cont
  %7 = landingpad { ptr, i32 }
          cleanup
  br label %ehcleanup

lpad6:                                            ; preds = %invoke.cont5
  %8 = landingpad { ptr, i32 }
          cleanup
  br label %lpad6.body

lpad6.body:                                       ; preds = %lpad.i.i, %lpad6
  %eh.lpad-body = phi { ptr, i32 } [ %8, %lpad6 ], [ %5, %lpad.i.i ]
  call void @_ZNSt7__cxx1112basic_stringIcSt11char_traitsIcESaIcEED1Ev(ptr noundef nonnull align 8 dereferenceable(32) %ref.tmp3) #15
  br label %ehcleanup

ehcleanup:                                        ; preds = %lpad6.body, %lpad4
  %.pn = phi { ptr, i32 } [ %eh.lpad-body, %lpad6.body ], [ %7, %lpad4 ]
  call void @_ZNSt7__cxx1112basic_stringIcSt11char_traitsIcESaIcEED1Ev(ptr noundef nonnull align 8 dereferenceable(32) %ref.tmp2) #15
  br label %ehcleanup8

ehcleanup8:                                       ; preds = %ehcleanup, %lpad
  %.pn.pn = phi { ptr, i32 } [ %.pn, %ehcleanup ], [ %6, %lpad ]
  call void @_ZNSt7__cxx1112basic_stringIcSt11char_traitsIcESaIcEED1Ev(ptr noundef nonnull align 8 dereferenceable(32) %ref.tmp) #15
  resume { ptr, i32 } %.pn.pn
}